target datalayout = "e-m:e-p270:32:32-p271:32:32-p272:64:64-i64:64-i128:128-f80:128-n8:16:32:64-S128"
target triple = "x86_64-pc-linux-gnu"

%"class.llvm::SmallVectorBase" = type { ptr, i32, i32 }
%"class.llvm::SMLoc" = type { ptr }
%"class.llvm::MCStreamer" = type { ptr, ptr, %"class.std::unique_ptr", %"class.std::vector.12", %"class.llvm::SmallVector.17", %"class.std::vector.22", ptr, i64, %"class.llvm::SmallVector.27", ptr, i32, i8, i8, ptr }
%"class.std::unique_ptr" = type { %"struct.std::__uniq_ptr_data" }
%"struct.std::__uniq_ptr_data" = type { %"class.std::__uniq_ptr_impl" }
%"class.std::__uniq_ptr_impl" = type { %"class.std::tuple" }
%"class.std::tuple" = type { %"struct.std::_Tuple_impl" }
%"struct.std::_Tuple_impl" = type { %"struct.std::_Head_base.11" }
%"struct.std::_Head_base.11" = type { ptr }
%"class.std::vector.12" = type { %"struct.std::_Vector_base.13" }
%"struct.std::_Vector_base.13" = type { %"struct.std::_Vector_base<llvm::MCDwarfFrameInfo, std::allocator<llvm::MCDwarfFrameInfo>>::_Vector_impl" }
%"struct.std::_Vector_base<llvm::MCDwarfFrameInfo, std::allocator<llvm::MCDwarfFrameInfo>>::_Vector_impl" = type { %"struct.std::_Vector_base<llvm::MCDwarfFrameInfo, std::allocator<llvm::MCDwarfFrameInfo>>::_Vector_impl_data" }
%"struct.std::_Vector_base<llvm::MCDwarfFrameInfo, std::allocator<llvm::MCDwarfFrameInfo>>::_Vector_impl_data" = type { ptr, ptr, ptr }
%"class.llvm::SmallVector.17" = type { %"class.llvm::SmallVectorImpl.18", %"struct.llvm::SmallVectorStorage.21" }
%"class.llvm::SmallVectorImpl.18" = type { %"class.llvm::SmallVectorTemplateBase.19" }
%"class.llvm::SmallVectorTemplateBase.19" = type { %"class.llvm::SmallVectorTemplateCommon.20" }
%"class.llvm::SmallVectorTemplateCommon.20" = type { %"class.llvm::SmallVectorBase" }
%"struct.llvm::SmallVectorStorage.21" = type { [16 x i8] }
%"class.std::vector.22" = type { %"struct.std::_Vector_base.23" }
%"struct.std::_Vector_base.23" = type { %"struct.std::_Vector_base<std::unique_ptr<llvm::WinEH::FrameInfo>, std::allocator<std::unique_ptr<llvm::WinEH::FrameInfo>>>::_Vector_impl" }
%"struct.std::_Vector_base<std::unique_ptr<llvm::WinEH::FrameInfo>, std::allocator<std::unique_ptr<llvm::WinEH::FrameInfo>>>::_Vector_impl" = type { %"struct.std::_Vector_base<std::unique_ptr<llvm::WinEH::FrameInfo>, std::allocator<std::unique_ptr<llvm::WinEH::FrameInfo>>>::_Vector_impl_data" }
%"struct.std::_Vector_base<std::unique_ptr<llvm::WinEH::FrameInfo>, std::allocator<std::unique_ptr<llvm::WinEH::FrameInfo>>>::_Vector_impl_data" = type { ptr, ptr, ptr }
%"class.llvm::SmallVector.27" = type { %"class.llvm::SmallVectorImpl.28", %"struct.llvm::SmallVectorStorage.31" }
%"class.llvm::SmallVectorImpl.28" = type { %"class.llvm::SmallVectorTemplateBase.29" }
%"class.llvm::SmallVectorTemplateBase.29" = type { %"class.llvm::SmallVectorTemplateCommon.30" }
%"class.llvm::SmallVectorTemplateCommon.30" = type { %"class.llvm::SmallVectorBase" }
%"struct.llvm::SmallVectorStorage.31" = type { [128 x i8] }

; Function Attrs: mustprogress nounwind uwtable
define linkonce_odr hidden noundef ptr @_ZN4llvm12MCBinaryExpr9createSubEPKNS_6MCExprES3_RNS_9MCContextE(ptr noundef %0, ptr noundef %1, ptr noundef nonnull align 8 dereferenceable(2432) %2) #1 comdat align 2 {
  %4 = alloca ptr, align 8
  %5 = alloca ptr, align 8
  %6 = alloca ptr, align 8
  %7 = alloca %"class.llvm::SMLoc", align 8
  store ptr %0, ptr %4, align 8
  store ptr %1, ptr %5, align 8
  store ptr %2, ptr %6, align 8
  %8 = load ptr, ptr %4, align 8
  %9 = load ptr, ptr %5, align 8
  %10 = load ptr, ptr %6, align 8
  call void @llvm.memset.p0.i64(ptr align 8 %7, i8 0, i64 8, i1 false)
  call void @_ZN4llvm5SMLocC2Ev(ptr noundef nonnull align 8 dereferenceable(8) %7) #2
  %11 = getelementptr inbounds nuw %"class.llvm::SMLoc", ptr %7, i32 0, i32 0
  %12 = load ptr, ptr %11, align 8
  %13 = call noundef ptr @_ZN4llvm12MCBinaryExpr6createENS0_6OpcodeEPKNS_6MCExprES4_RNS_9MCContextENS_5SMLocE(i32 noundef 18, ptr noundef %8, ptr noundef %9, ptr noundef nonnull align 8 dereferenceable(2432) %10, ptr %12)
  ret ptr %13
}

; Function Attrs: mustprogress nounwind uwtable
define linkonce_odr hidden noundef ptr @_ZN4llvm15MCSymbolRefExpr6createEPKNS_8MCSymbolERNS_9MCContextE(ptr noundef %0, ptr noundef nonnull align 8 dereferenceable(2432) %1) #1 comdat align 2 {
  %3 = alloca ptr, align 8
  %4 = alloca ptr, align 8
  %5 = alloca %"class.llvm::SMLoc", align 8
  store ptr %0, ptr %3, align 8
  store ptr %1, ptr %4, align 8
  %6 = load ptr, ptr %3, align 8
  %7 = load ptr, ptr %4, align 8
  call void @llvm.memset.p0.i64(ptr align 8 %5, i8 0, i64 8, i1 false)
  call void @_ZN4llvm5SMLocC2Ev(ptr noundef nonnull align 8 dereferenceable(8) %5) #2
  %8 = getelementptr inbounds nuw %"class.llvm::SMLoc", ptr %5, i32 0, i32 0
  %9 = load ptr, ptr %8, align 8
  %10 = call noundef ptr @_ZN4llvm15MCSymbolRefExpr6createEPKNS_8MCSymbolENS0_11VariantKindERNS_9MCContextENS_5SMLocE(ptr noundef %6, i16 noundef zeroext 0, ptr noundef nonnull align 8 dereferenceable(2432) %7, ptr %9)
  ret ptr %10
}

; Function Attrs: mustprogress nounwind uwtable
define linkonce_odr hidden void @_ZN4llvm5SMLocC2Ev(ptr noundef nonnull align 8 dereferenceable(8) %0) unnamed_addr #1 comdat align 2 {
  %2 = alloca ptr, align 8
  store ptr %0, ptr %2, align 8
  %3 = load ptr, ptr %2, align 8
  %4 = getelementptr inbounds nuw %"class.llvm::SMLoc", ptr %3, i32 0, i32 0
  store ptr null, ptr %4, align 8
  ret void
}

; Function Attrs: mustprogress nounwind uwtable
define linkonce_odr hidden noundef nonnull align 8 dereferenceable(2432) ptr @_ZNK4llvm10MCStreamer10getContextEv(ptr noundef nonnull align 8 dereferenceable(288) %0) #1 comdat align 2 {
  %2 = alloca ptr, align 8
  store ptr %0, ptr %2, align 8
  %3 = load ptr, ptr %2, align 8
  %4 = getelementptr inbounds nuw %"class.llvm::MCStreamer", ptr %3, i32 0, i32 1
  %5 = load ptr, ptr %4, align 8
  ret ptr %5
}

; Function Attrs: mustprogress nounwind uwtable
define dso_local noundef ptr @_ZNK4llvm22AArch64MCAsmInfoDarwin27getExprForPersonalitySymbolEPKNS_8MCSymbolEjRNS_10MCStreamerE(ptr noundef nonnull align 8 dereferenceable(484) %0, ptr noundef %1, i32 noundef %2, ptr noundef nonnull align 8 dereferenceable(288) %3) unnamed_addr #1 align 2 {
  %5 = alloca ptr, align 8
  %6 = alloca ptr, align 8
  %7 = alloca i32, align 4
  %8 = alloca ptr, align 8
  %9 = alloca ptr, align 8
  %10 = alloca ptr, align 8
  %11 = alloca %"class.llvm::SMLoc", align 8
  %12 = alloca ptr, align 8
  %13 = alloca %"class.llvm::SMLoc", align 8
  %14 = alloca ptr, align 8
  store ptr %0, ptr %5, align 8
  store ptr %1, ptr %6, align 8
  store i32 %2, ptr %7, align 4
  store ptr %3, ptr %8, align 8
  %15 = load ptr, ptr %8, align 8
  %16 = call noundef nonnull align 8 dereferenceable(2432) ptr @_ZNK4llvm10MCStreamer10getContextEv(ptr noundef nonnull align 8 dereferenceable(288) %15)
  store ptr %16, ptr %9, align 8
  %17 = load ptr, ptr %6, align 8
  %18 = load ptr, ptr %9, align 8
  call void @llvm.memset.p0.i64(ptr align 8 %11, i8 0, i64 8, i1 false)
  call void @_ZN4llvm5SMLocC2Ev(ptr noundef nonnull align 8 dereferenceable(8) %11) #2
  %19 = getelementptr inbounds nuw %"class.llvm::SMLoc", ptr %11, i32 0, i32 0
  %20 = load ptr, ptr %19, align 8
  %21 = call noundef ptr @_ZN4llvm15MCSymbolRefExpr6createEPKNS_8MCSymbolENS0_11VariantKindERNS_9MCContextENS_5SMLocE(ptr noundef %17, i16 noundef zeroext 2, ptr noundef nonnull align 8 dereferenceable(2432) %18, ptr %20)
  store ptr %21, ptr %10, align 8
  %22 = load ptr, ptr %9, align 8
  %23 = call noundef ptr @_ZN4llvm9MCContext16createTempSymbolEv(ptr noundef nonnull align 8 dereferenceable(2432) %22)
  store ptr %23, ptr %12, align 8
  %24 = load ptr, ptr %8, align 8
  %25 = load ptr, ptr %12, align 8
  call void @llvm.memset.p0.i64(ptr align 8 %13, i8 0, i64 8, i1 false)
  call void @_ZN4llvm5SMLocC2Ev(ptr noundef nonnull align 8 dereferenceable(8) %13) #2
  %26 = getelementptr inbounds nuw %"class.llvm::SMLoc", ptr %13, i32 0, i32 0
  %27 = load ptr, ptr %26, align 8
  %28 = load ptr, ptr %24, align 8
  %29 = getelementptr inbounds ptr, ptr %28, i64 25
  %30 = load ptr, ptr %29, align 8
  call void %30(ptr noundef nonnull align 8 dereferenceable(288) %24, ptr noundef %25, ptr %27)
  %31 = load ptr, ptr %12, align 8
  %32 = load ptr, ptr %9, align 8
  %33 = call noundef ptr @_ZN4llvm15MCSymbolRefExpr6createEPKNS_8MCSymbolERNS_9MCContextE(ptr noundef %31, ptr noundef nonnull align 8 dereferenceable(2432) %32)
  store ptr %33, ptr %14, align 8
  %34 = load ptr, ptr %10, align 8
  %35 = load ptr, ptr %14, align 8
  %36 = load ptr, ptr %9, align 8
  %37 = call noundef ptr @_ZN4llvm12MCBinaryExpr9createSubEPKNS_6MCExprES3_RNS_9MCContextE(ptr noundef %34, ptr noundef %35, ptr noundef nonnull align 8 dereferenceable(2432) %36)
  ret ptr %37
}