; Function Attrs: mustprogress nounwind uwtable
define dso_local noundef ptr @_ZNK4llvm22AArch64MCAsmInfoDarwin27getExprForPersonalitySymbolEPKNS_8MCSymbolEjRNS_10MCStreamerE(ptr nocapture nonnull readnone align 8 %0, ptr noundef %1, i32 %2, ptr noundef nonnull align 8 dereferenceable(288) %3) unnamed_addr #0 align 2 {
  %5 = getelementptr inbounds nuw i8, ptr %3, i64 8
  %6 = load ptr, ptr %5, align 8
  %7 = tail call noundef ptr @_ZN4llvm15MCSymbolRefExpr6createEPKNS_8MCSymbolENS0_11VariantKindERNS_9MCContextENS_5SMLocE(ptr noundef %1, i16 noundef zeroext 2, ptr noundef nonnull align 8 dereferenceable(2432) %6, ptr null) #12
  %8 = tail call noundef ptr @_ZN4llvm9MCContext16createTempSymbolEv(ptr noundef nonnull align 8 dereferenceable(2432) %6) #12
  %9 = load ptr, ptr %3, align 8
  %10 = getelementptr inbounds i8, ptr %9, i64 200
  %11 = load ptr, ptr %10, align 8
  tail call void %11(ptr noundef nonnull align 8 dereferenceable(288) %3, ptr noundef %8, ptr null) #12
  %12 = tail call noundef ptr @_ZN4llvm15MCSymbolRefExpr6createEPKNS_8MCSymbolENS0_11VariantKindERNS_9MCContextENS_5SMLocE(ptr noundef %8, i16 noundef zeroext 0, ptr noundef nonnull align 8 dereferenceable(2432) %6, ptr null) #12
  %13 = tail call noundef ptr @_ZN4llvm12MCBinaryExpr6createENS0_6OpcodeEPKNS_6MCExprES4_RNS_9MCContextENS_5SMLocE(i32 noundef 18, ptr noundef %7, ptr noundef %12, ptr noundef nonnull align 8 dereferenceable(2432) %6, ptr null) #12
  ret ptr %13
}